; Function Attrs: alwaysinline norecurse nounwind uwtable
define internal void @_ZNK4ncnn13PReLU_x86_avx15forward_inplaceERNS_3MatERKNS_6OptionE.omp_outlined.5(ptr noalias noundef readonly captures(none) %0, ptr noalias readnone captures(none) %1, ptr noundef nonnull readonly align 4 captures(none) dereferenceable(4) %2, ptr noundef nonnull readonly align 4 captures(none) dereferenceable(4) %3, ptr noundef nonnull readonly align 8 captures(none) dereferenceable(8) %4, ptr noundef nonnull readonly align 4 captures(none) dereferenceable(4) %5) #10 {
  %7 = alloca i32, align 4
  %8 = alloca i32, align 4
  %9 = alloca i32, align 4
  %10 = alloca i32, align 4
  %11 = load i32, ptr %3, align 4, !tbaa !21
  %12 = load i32, ptr %2, align 4, !tbaa !21
  %13 = icmp slt i32 %11, %12
  br i1 %13, label %14, label %35

14:                                               ; preds = %6
  %15 = xor i32 %11, -1
  %16 = add i32 %12, %15
  call void @llvm.lifetime.start.p0(i64 4, ptr nonnull %7) #6
  store i32 0, ptr %7, align 4, !tbaa !21
  call void @llvm.lifetime.start.p0(i64 4, ptr nonnull %8) #6
  store i32 %16, ptr %8, align 4, !tbaa !21
  call void @llvm.lifetime.start.p0(i64 4, ptr nonnull %9) #6
  store i32 1, ptr %9, align 4, !tbaa !21
  call void @llvm.lifetime.start.p0(i64 4, ptr nonnull %10) #6
  store i32 0, ptr %10, align 4, !tbaa !21
  %17 = load i32, ptr %0, align 4, !tbaa !21
  call void @__kmpc_for_static_init_4u(ptr nonnull @1, i32 %17, i32 34, ptr nonnull %10, ptr nonnull %7, ptr nonnull %8, ptr nonnull %9, i32 1, i32 1)
  %18 = load i32, ptr %8, align 4, !tbaa !21
  %19 = call i32 @llvm.umin.i32(i32 %18, i32 %16)
  store i32 %19, ptr %8, align 4, !tbaa !21
  %20 = load i32, ptr %7, align 4, !tbaa !21
  %21 = add i32 %19, 1
  %22 = icmp ult i32 %20, %21
  br i1 %22, label %.lr.ph, label %._crit_edge

.lr.ph:                                           ; preds = %14
  %23 = load ptr, ptr %4, align 8, !tbaa !40
  br label %24

24:                                               ; preds = %.lr.ph, %33
  %.021 = phi i32 [ %20, %.lr.ph ], [ %34, %33 ]
  %25 = add i32 %.021, %11
  %26 = sext i32 %25 to i64
  %27 = getelementptr inbounds float, ptr %23, i64 %26
  %28 = load float, ptr %27, align 4, !tbaa !44
  %29 = fcmp fast olt float %28, 0.000000e+00
  br i1 %29, label %30, label %33

30:                                               ; preds = %24
  %31 = load float, ptr %5, align 4, !tbaa !44
  %32 = fmul fast float %31, %28
  store float %32, ptr %27, align 4, !tbaa !44
  br label %33

33:                                               ; preds = %30, %24
  %34 = add nuw i32 %.021, 1
  %exitcond.not = icmp eq i32 %.021, %19
  br i1 %exitcond.not, label %._crit_edge, label %24

._crit_edge:                                      ; preds = %33, %14
  call void @__kmpc_for_static_fini(ptr nonnull @1, i32 %17)
  call void @llvm.lifetime.end.p0(i64 4, ptr nonnull %10) #6
  call void @llvm.lifetime.end.p0(i64 4, ptr nonnull %9) #6
  call void @llvm.lifetime.end.p0(i64 4, ptr nonnull %8) #6
  call void @llvm.lifetime.end.p0(i64 4, ptr nonnull %7) #6
  br label %35

35:                                               ; preds = %._crit_edge, %6
  ret void
}